; Function Attrs: mustprogress nounwind uwtable
define hidden noundef zeroext i1 @_ZN7PhiNode12is_data_loopEP10RegionNodeP4NodePK8PhaseGVN(ptr noundef nonnull align 8 dereferenceable(88) %0, ptr noundef %1, ptr noundef %2, ptr nocapture noundef readonly %3) local_unnamed_addr #2 align 2 {
  %5 = getelementptr inbounds i8, ptr %1, i64 44
  %6 = load i32, ptr %5, align 4
  %7 = and i32 %6, 127
  %8 = icmp eq i32 %7, 96
  br i1 %8, label %9, label %.thread

9:                                                ; preds = %4
  %10 = getelementptr inbounds i8, ptr %1, i64 24
  %11 = load i32, ptr %10, align 8
  %12 = icmp eq i32 %11, 3
  br i1 %12, label %13, label %.thread

13:                                               ; preds = %9
  %14 = getelementptr inbounds i8, ptr %0, i64 8
  %15 = load ptr, ptr %14, align 8
  %16 = getelementptr inbounds i8, ptr %15, i64 8
  %17 = load ptr, ptr %16, align 8
  %18 = tail call noundef ptr @_ZNK4Node6uncastEb(ptr noundef nonnull align 8 dereferenceable(52) %2, i1 noundef zeroext false) #10
  %19 = tail call noundef ptr @_ZNK4Node6uncastEb(ptr noundef nonnull align 8 dereferenceable(52) %17, i1 noundef zeroext false) #10
  %20 = icmp ne ptr %18, %19
  br label %38

.thread:                                          ; preds = %4, %9
  %.pn.in = getelementptr inbounds i8, ptr %3, i64 16
  %.pn = load ptr, ptr %.pn.in, align 8
  %.in = getelementptr inbounds i8, ptr %.pn, i64 744
  %21 = load ptr, ptr %.in, align 8
  %22 = tail call noundef zeroext i1 @_ZNK7PhiNode24is_unsafe_data_referenceEP4Node(ptr noundef nonnull align 8 dereferenceable(88) %0, ptr noundef %2)
  br i1 %22, label %38, label %23

23:                                               ; preds = %.thread
  %24 = getelementptr inbounds i8, ptr %1, i64 24
  %25 = load i32, ptr %24, align 8
  %26 = icmp eq i32 %25, 3
  br i1 %26, label %27, label %38

27:                                               ; preds = %23
  %28 = getelementptr inbounds i8, ptr %1, i64 8
  %29 = load ptr, ptr %28, align 8
  %30 = getelementptr inbounds i8, ptr %29, i64 8
  %31 = load ptr, ptr %30, align 8
  %.not = icmp eq ptr %31, %21
  br i1 %.not, label %38, label %32

32:                                               ; preds = %27
  %33 = getelementptr inbounds i8, ptr %29, i64 16
  %34 = load ptr, ptr %33, align 8
  %35 = icmp eq ptr %34, %21
  br i1 %35, label %36, label %38

36:                                               ; preds = %32
  %37 = tail call noundef zeroext i1 @_ZN10RegionNode21is_unreachable_regionEPK8PhaseGVN(ptr noundef nonnull align 8 dereferenceable(60) %1, ptr noundef nonnull %3)
  br label %38

38:                                               ; preds = %.thread, %27, %32, %36, %23, %13
  %.0 = phi i1 [ %20, %13 ], [ true, %.thread ], [ false, %23 ], [ false, %32 ], [ false, %27 ], [ %37, %36 ]
  ret i1 %.0
}